target datalayout = "e-m:e-p270:32:32-p271:32:32-p272:64:64-i64:64-i128:128-f80:128-n8:16:32:64-S128"
target triple = "x86_64-pc-linux-gnu"

%class.QString = type { %struct.QArrayDataPointer.0 }
%struct.QArrayDataPointer.0 = type { ptr, ptr, i64 }
%struct.QMetaObject = type { %"struct.QMetaObject::Data" }
%"struct.QMetaObject::Data" = type { %"struct.QMetaObject::SuperData", ptr, ptr, ptr, ptr, ptr, ptr }
%"struct.QMetaObject::SuperData" = type { ptr }

@.str.5 = private unnamed_addr constant [10 x i8] c"Displayed\00", align 1
@.str.6 = private unnamed_addr constant [6 x i8] c"Title\00", align 1
@.str.7 = private unnamed_addr constant [5 x i8] c"Type\00", align 1
@.str.8 = private unnamed_addr constant [7 x i8] c"Fields\00", align 1
@.str.9 = private unnamed_addr constant [17 x i8] c"Field Occurrence\00", align 1
@.str.10 = private unnamed_addr constant [9 x i8] c"Resolved\00", align 1
@.str.11 = private unnamed_addr constant [6 x i8] c"Width\00", align 1
@.str.12 = private unnamed_addr constant [10 x i8] c"Alignment\00", align 1
@_ZN15ColumnListModel16staticMetaObjectE = external global %struct.QMetaObject, align 8

; Function Attrs: mustprogress nounwind uwtable
define linkonce_odr void @_ZN17QArrayDataPointerIDsEC2Ev(ptr noundef nonnull align 8 dereferenceable(24) %0) unnamed_addr #1 comdat align 2 {
  %2 = alloca ptr, align 8
  store ptr %0, ptr %2, align 8
  %3 = load ptr, ptr %2, align 8
  %4 = getelementptr inbounds %struct.QArrayDataPointer.0, ptr %3, i32 0, i32 0
  store ptr null, ptr %4, align 8
  %5 = getelementptr inbounds %struct.QArrayDataPointer.0, ptr %3, i32 0, i32 1
  store ptr null, ptr %5, align 8
  %6 = getelementptr inbounds %struct.QArrayDataPointer.0, ptr %3, i32 0, i32 2
  store i64 0, ptr %6, align 8
  ret void
}

; Function Attrs: mustprogress nounwind uwtable
define linkonce_odr void @_ZN7QStringC2Ev(ptr noundef nonnull align 8 dereferenceable(24) %0) unnamed_addr #1 comdat align 2 {
  %2 = alloca ptr, align 8
  store ptr %0, ptr %2, align 8
  %3 = load ptr, ptr %2, align 8
  %4 = getelementptr inbounds %class.QString, ptr %3, i32 0, i32 0
  call void @_ZN17QArrayDataPointerIDsEC2Ev(ptr noundef nonnull align 8 dereferenceable(24) %4) #2
  ret void
}

; Function Attrs: mustprogress uwtable
define linkonce_odr void @_ZN15ColumnListModel2trEPKcS1_i(ptr dead_on_unwind noalias writable sret(%class.QString) align 8 %0, ptr noundef %1, ptr noundef %2, i32 noundef %3) #3 comdat align 2 {
  %5 = alloca ptr, align 8
  %6 = alloca ptr, align 8
  %7 = alloca ptr, align 8
  %8 = alloca i32, align 4
  store ptr %0, ptr %5, align 8
  store ptr %1, ptr %6, align 8
  store ptr %2, ptr %7, align 8
  store i32 %3, ptr %8, align 4
  %9 = load ptr, ptr %6, align 8
  %10 = load ptr, ptr %7, align 8
  %11 = load i32, ptr %8, align 4
  call void @_ZNK11QMetaObject2trEPKcS1_i(ptr dead_on_unwind writable sret(%class.QString) align 8 %0, ptr noundef nonnull align 8 dereferenceable(56) @_ZN15ColumnListModel16staticMetaObjectE, ptr noundef %9, ptr noundef %10, i32 noundef %11)
  ret void
}

; Function Attrs: mustprogress uwtable
define void @_ZNK15ColumnListModel11headerTitleEi(ptr dead_on_unwind noalias writable sret(%class.QString) align 8 %0, ptr noundef nonnull align 8 dereferenceable(16) %1, i32 noundef %2) #3 align 2 {
  %4 = alloca ptr, align 8
  %5 = alloca ptr, align 8
  %6 = alloca i32, align 4
  store ptr %0, ptr %4, align 8
  store ptr %1, ptr %5, align 8
  store i32 %2, ptr %6, align 4
  %7 = load i32, ptr %6, align 4
  switch i32 %7, label %16 [
    i32 0, label %8
    i32 1, label %9
    i32 2, label %10
    i32 3, label %11
    i32 4, label %12
    i32 5, label %13
    i32 6, label %14
    i32 7, label %15
  ]

8:                                                ; preds = %3
  call void @_ZN15ColumnListModel2trEPKcS1_i(ptr dead_on_unwind writable sret(%class.QString) align 8 %0, ptr noundef @.str.5, ptr noundef null, i32 noundef -1)
  br label %17

9:                                                ; preds = %3
  call void @_ZN15ColumnListModel2trEPKcS1_i(ptr dead_on_unwind writable sret(%class.QString) align 8 %0, ptr noundef @.str.6, ptr noundef null, i32 noundef -1)
  br label %17

10:                                               ; preds = %3
  call void @_ZN15ColumnListModel2trEPKcS1_i(ptr dead_on_unwind writable sret(%class.QString) align 8 %0, ptr noundef @.str.7, ptr noundef null, i32 noundef -1)
  br label %17

11:                                               ; preds = %3
  call void @_ZN15ColumnListModel2trEPKcS1_i(ptr dead_on_unwind writable sret(%class.QString) align 8 %0, ptr noundef @.str.8, ptr noundef null, i32 noundef -1)
  br label %17

12:                                               ; preds = %3
  call void @_ZN15ColumnListModel2trEPKcS1_i(ptr dead_on_unwind writable sret(%class.QString) align 8 %0, ptr noundef @.str.9, ptr noundef null, i32 noundef -1)
  br label %17

13:                                               ; preds = %3
  call void @_ZN15ColumnListModel2trEPKcS1_i(ptr dead_on_unwind writable sret(%class.QString) align 8 %0, ptr noundef @.str.10, ptr noundef null, i32 noundef -1)
  br label %17

14:                                               ; preds = %3
  call void @_ZN15ColumnListModel2trEPKcS1_i(ptr dead_on_unwind writable sret(%class.QString) align 8 %0, ptr noundef @.str.11, ptr noundef null, i32 noundef -1)
  br label %17

15:                                               ; preds = %3
  call void @_ZN15ColumnListModel2trEPKcS1_i(ptr dead_on_unwind writable sret(%class.QString) align 8 %0, ptr noundef @.str.12, ptr noundef null, i32 noundef -1)
  br label %17

16:                                               ; preds = %3
  call void @_ZN7QStringC2Ev(ptr noundef nonnull align 8 dereferenceable(24) %0) #2
  br label %17

17:                                               ; preds = %16, %15, %14, %13, %12, %11, %10, %9, %8
  ret void
}